ccollections
defaultdict
p0
(c__builtin__
int
p1
tp2
Rp3
(S'I'
p4
S'O'
p5
tp6
I9622
s(S'<start>'
p7
S'B'
p8
tp9
I749
s(g7
g5
tp10
I13047
s(g8
g4
tp11
I9633
s(g4
g4
tp12
I14802
s(g5
g5
tp13
I315457
s(g5
g8
tp14
I15888
s(g8
g5
tp15
I7002
s.