ccollections
defaultdict
p0
(c__builtin__
int
p1
tp2
Rp3
(S'I'
p4
S'O'
p5
tp6
I7300
s(S'<start>'
p7
S'B'
p8
tp9
I534
s(g7
g5
tp10
I10502
s(g8
g4
tp11
I7309
s(g4
g4
tp12
I11107
s(g5
g5
tp13
I253230
s(g5
g8
tp14
I11595
s(g8
g5
tp15
I4818
s.